target datalayout = "e-m:e-p270:32:32-p271:32:32-p272:64:64-i64:64-i128:128-f80:128-n8:16:32:64-S128"
target triple = "x86_64-pc-linux-gnu"

%struct.archive_write = type { %struct.archive, i32, i64, i64, ptr, i64, ptr, ptr, ptr, ptr, ptr, i32, i32, ptr, ptr, ptr, ptr, ptr, ptr, ptr, ptr, ptr, ptr, ptr, ptr, ptr, ptr }
%struct.archive = type { i32, i32, ptr, i32, ptr, i32, i32, ptr, %struct.archive_string, ptr, i32, i32, ptr, ptr, i64, i64, i64, i8, i64 }
%struct.archive_string = type { ptr, i64, i64 }
%struct.ar_w = type { i64, i64, i32, i32, i8, ptr }

; Function Attrs: nounwind uwtable
define internal i32 @archive_write_ar_free(ptr noundef %0) #0 {
  %2 = alloca i32, align 4
  %3 = alloca ptr, align 8
  %4 = alloca ptr, align 8
  %5 = alloca i32, align 4
  store ptr %0, ptr %3, align 8, !tbaa !9
  call void @llvm.lifetime.start.p0(i64 8, ptr %4) #9
  %6 = load ptr, ptr %3, align 8, !tbaa !9
  %7 = getelementptr inbounds nuw %struct.archive_write, ptr %6, i32 0, i32 15
  %8 = load ptr, ptr %7, align 8, !tbaa !26
  store ptr %8, ptr %4, align 8, !tbaa !24
  %9 = load ptr, ptr %4, align 8, !tbaa !24
  %10 = icmp eq ptr %9, null
  br i1 %10, label %11, label %12

11:                                               ; preds = %1
  store i32 0, ptr %2, align 4
  store i32 1, ptr %5, align 4
  br label %27

12:                                               ; preds = %1
  %13 = load ptr, ptr %4, align 8, !tbaa !24
  %14 = getelementptr inbounds nuw %struct.ar_w, ptr %13, i32 0, i32 3
  %15 = load i32, ptr %14, align 4, !tbaa !40
  %16 = icmp sgt i32 %15, 0
  br i1 %16, label %17, label %23

17:                                               ; preds = %12
  %18 = load ptr, ptr %4, align 8, !tbaa !24
  %19 = getelementptr inbounds nuw %struct.ar_w, ptr %18, i32 0, i32 5
  %20 = load ptr, ptr %19, align 8, !tbaa !41
  call void @free(ptr noundef %20) #9
  %21 = load ptr, ptr %4, align 8, !tbaa !24
  %22 = getelementptr inbounds nuw %struct.ar_w, ptr %21, i32 0, i32 5
  store ptr null, ptr %22, align 8, !tbaa !41
  br label %23

23:                                               ; preds = %17, %12
  %24 = load ptr, ptr %4, align 8, !tbaa !24
  call void @free(ptr noundef %24) #9
  %25 = load ptr, ptr %3, align 8, !tbaa !9
  %26 = getelementptr inbounds nuw %struct.archive_write, ptr %25, i32 0, i32 15
  store ptr null, ptr %26, align 8, !tbaa !26
  store i32 0, ptr %2, align 4
  store i32 1, ptr %5, align 4
  br label %27

27:                                               ; preds = %23, %11
  call void @llvm.lifetime.end.p0(i64 8, ptr %4) #9
  %28 = load i32, ptr %2, align 4
  ret i32 %28
}