; Function Attrs: mustprogress nounwind willreturn uwtable
define internal noundef i32 @archive_write_ar_free(ptr noundef captures(none) %0) #4 {
  %2 = getelementptr inbounds nuw i8, ptr %0, i64 248
  %3 = load ptr, ptr %2, align 8, !tbaa !17
  %4 = icmp eq ptr %3, null
  br i1 %4, label %13, label %5

5:                                                ; preds = %1
  %6 = getelementptr inbounds nuw i8, ptr %3, i64 20
  %7 = load i32, ptr %6, align 4, !tbaa !31
  %8 = icmp sgt i32 %7, 0
  br i1 %8, label %9, label %12

9:                                                ; preds = %5
  %10 = getelementptr inbounds nuw i8, ptr %3, i64 32
  %11 = load ptr, ptr %10, align 8, !tbaa !32
  tail call void @free(ptr noundef %11) #12
  br label %12

12:                                               ; preds = %9, %5
  tail call void @free(ptr noundef nonnull %3) #12
  store ptr null, ptr %2, align 8, !tbaa !17
  br label %13

13:                                               ; preds = %1, %12
  ret i32 0
}